; Function Attrs: nofree norecurse nosync nounwind memory(read, inaccessiblemem: none) uwtable
define hidden noundef zeroext i1 @Curl_conn_is_tcp_listen(ptr noundef readonly captures(none) %0, i32 noundef %1) local_unnamed_addr #7 {
  %3 = getelementptr inbounds nuw i8, ptr %0, i64 24
  %4 = load ptr, ptr %3, align 8, !tbaa !88
  %5 = getelementptr inbounds nuw i8, ptr %4, i64 608
  %6 = sext i32 %1 to i64
  %7 = getelementptr inbounds [2 x ptr], ptr %5, i64 0, i64 %6
  %.06 = load ptr, ptr %7, align 8, !tbaa !142
  %.not7.not = icmp eq ptr %.06, null
  br i1 %.not7.not, label %._crit_edge, label %.lr.ph

8:                                                ; preds = %.lr.ph
  %9 = getelementptr inbounds nuw i8, ptr %.08, i64 8
  %.0 = load ptr, ptr %9, align 8, !tbaa !142
  %.not.not = icmp eq ptr %.0, null
  br i1 %.not.not, label %._crit_edge, label %.lr.ph, !llvm.loop !151

.lr.ph:                                           ; preds = %2, %8
  %.08 = phi ptr [ %.0, %8 ], [ %.06, %2 ]
  %10 = load ptr, ptr %.08, align 8, !tbaa !111
  %11 = icmp eq ptr %10, @Curl_cft_tcp_accept
  br i1 %11, label %._crit_edge, label %8

._crit_edge:                                      ; preds = %.lr.ph, %8, %2
  %.not.lcssa = phi i1 [ false, %2 ], [ %11, %8 ], [ %11, %.lr.ph ]
  ret i1 %.not.lcssa
}